target datalayout = "e-m:e-p270:32:32-p271:32:32-p272:64:64-i64:64-i128:128-f80:128-n8:16:32:64-S128"
target triple = "x86_64-pc-linux-gnu"

%struct.ident_t = type { i32, i32, i32, i32, ptr }
%class.anon.165 = type { ptr }

@1 = private unnamed_addr constant %struct.ident_t { i32 0, i32 514, i32 0, i32 22, ptr @0 }, align 8

; Function Attrs: noinline noreturn nounwind ssp uwtable
define linkonce_odr hidden void @__clang_call_terminate(ptr noundef %0) #13 comdat {
  %2 = call ptr @__cxa_begin_catch(ptr %0) #27
  call void @_ZSt9terminatev() #31
  unreachable
}

; Function Attrs: inlinehint mustprogress nounwind ssp uwtable
define internal void @"_ZZZZN6open3d1t8geometry6kernel10pointcloud19NormalizeNormalsCPUERNS_4core6TensorEENK3$_0clEvENKUlvE0_clEvENKUllE_clEl"(ptr noundef nonnull align 8 dereferenceable(8) %0, i64 noundef %1) #4 align 2 {
  %3 = alloca ptr, align 8
  %4 = alloca i64, align 8
  %5 = alloca i64, align 8
  %6 = alloca double, align 8
  %7 = alloca double, align 8
  %8 = alloca double, align 8
  %9 = alloca double, align 8
  store ptr %0, ptr %3, align 8, !tbaa !32
  store i64 %1, ptr %4, align 8, !tbaa !15
  %10 = load ptr, ptr %3, align 8
  call void @llvm.lifetime.start.p0(i64 8, ptr %5) #27
  %11 = load i64, ptr %4, align 8, !tbaa !15
  %12 = mul nsw i64 3, %11
  store i64 %12, ptr %5, align 8, !tbaa !15
  call void @llvm.lifetime.start.p0(i64 8, ptr %6) #27
  %13 = getelementptr inbounds nuw %class.anon.165, ptr %10, i32 0, i32 0
  %14 = load ptr, ptr %13, align 8, !tbaa !1200
  %15 = load i64, ptr %5, align 8, !tbaa !15
  %16 = getelementptr inbounds double, ptr %14, i64 %15
  %17 = load double, ptr %16, align 8, !tbaa !64
  store double %17, ptr %6, align 8, !tbaa !64
  call void @llvm.lifetime.start.p0(i64 8, ptr %7) #27
  %18 = getelementptr inbounds nuw %class.anon.165, ptr %10, i32 0, i32 0
  %19 = load ptr, ptr %18, align 8, !tbaa !1200
  %20 = load i64, ptr %5, align 8, !tbaa !15
  %21 = add nsw i64 %20, 1
  %22 = getelementptr inbounds double, ptr %19, i64 %21
  %23 = load double, ptr %22, align 8, !tbaa !64
  store double %23, ptr %7, align 8, !tbaa !64
  call void @llvm.lifetime.start.p0(i64 8, ptr %8) #27
  %24 = getelementptr inbounds nuw %class.anon.165, ptr %10, i32 0, i32 0
  %25 = load ptr, ptr %24, align 8, !tbaa !1200
  %26 = load i64, ptr %5, align 8, !tbaa !15
  %27 = add nsw i64 %26, 2
  %28 = getelementptr inbounds double, ptr %25, i64 %27
  %29 = load double, ptr %28, align 8, !tbaa !64
  store double %29, ptr %8, align 8, !tbaa !64
  call void @llvm.lifetime.start.p0(i64 8, ptr %9) #27
  %30 = load double, ptr %6, align 8, !tbaa !64
  %31 = load double, ptr %6, align 8, !tbaa !64
  %32 = load double, ptr %7, align 8, !tbaa !64
  %33 = load double, ptr %7, align 8, !tbaa !64
  %34 = fmul double %32, %33
  %35 = call double @llvm.fmuladd.f64(double %30, double %31, double %34)
  %36 = load double, ptr %8, align 8, !tbaa !64
  %37 = load double, ptr %8, align 8, !tbaa !64
  %38 = call double @llvm.fmuladd.f64(double %36, double %37, double %35)
  %39 = call double @sqrt(double noundef %38) #27, !tbaa !47
  store double %39, ptr %9, align 8, !tbaa !64
  %40 = load double, ptr %9, align 8, !tbaa !64
  %41 = fcmp ogt double %40, 0.000000e+00
  br i1 %41, label %42, label %52

42:                                               ; preds = %2
  %43 = load double, ptr %9, align 8, !tbaa !64
  %44 = load double, ptr %6, align 8, !tbaa !64
  %45 = fdiv double %44, %43
  store double %45, ptr %6, align 8, !tbaa !64
  %46 = load double, ptr %9, align 8, !tbaa !64
  %47 = load double, ptr %7, align 8, !tbaa !64
  %48 = fdiv double %47, %46
  store double %48, ptr %7, align 8, !tbaa !64
  %49 = load double, ptr %9, align 8, !tbaa !64
  %50 = load double, ptr %8, align 8, !tbaa !64
  %51 = fdiv double %50, %49
  store double %51, ptr %8, align 8, !tbaa !64
  br label %52

52:                                               ; preds = %42, %2
  %53 = load double, ptr %6, align 8, !tbaa !64
  %54 = getelementptr inbounds nuw %class.anon.165, ptr %10, i32 0, i32 0
  %55 = load ptr, ptr %54, align 8, !tbaa !1200
  %56 = load i64, ptr %5, align 8, !tbaa !15
  %57 = getelementptr inbounds double, ptr %55, i64 %56
  store double %53, ptr %57, align 8, !tbaa !64
  %58 = load double, ptr %7, align 8, !tbaa !64
  %59 = getelementptr inbounds nuw %class.anon.165, ptr %10, i32 0, i32 0
  %60 = load ptr, ptr %59, align 8, !tbaa !1200
  %61 = load i64, ptr %5, align 8, !tbaa !15
  %62 = add nsw i64 %61, 1
  %63 = getelementptr inbounds double, ptr %60, i64 %62
  store double %58, ptr %63, align 8, !tbaa !64
  %64 = load double, ptr %8, align 8, !tbaa !64
  %65 = getelementptr inbounds nuw %class.anon.165, ptr %10, i32 0, i32 0
  %66 = load ptr, ptr %65, align 8, !tbaa !1200
  %67 = load i64, ptr %5, align 8, !tbaa !15
  %68 = add nsw i64 %67, 2
  %69 = getelementptr inbounds double, ptr %66, i64 %68
  store double %64, ptr %69, align 8, !tbaa !64
  call void @llvm.lifetime.end.p0(i64 8, ptr %9) #27
  call void @llvm.lifetime.end.p0(i64 8, ptr %8) #27
  call void @llvm.lifetime.end.p0(i64 8, ptr %7) #27
  call void @llvm.lifetime.end.p0(i64 8, ptr %6) #27
  call void @llvm.lifetime.end.p0(i64 8, ptr %5) #27
  ret void
}

; Function Attrs: alwaysinline norecurse nounwind ssp uwtable
define internal void @"_ZN6open3d4core15ParallelForCPU_IZZZNS_1t8geometry6kernel10pointcloud19NormalizeNormalsCPUERNS0_6TensorEENK3$_0clEvENKUlvE0_clEvEUllE_EEvRKNS0_6DeviceElRKT_.omp_outlined"(ptr noalias noundef %0, ptr noalias noundef %1, ptr noundef nonnull align 8 dereferenceable(8) %2, ptr noundef nonnull align 8 dereferenceable(8) %3) #26 personality ptr @__gxx_personality_v0 {
  %5 = alloca ptr, align 8
  %6 = alloca ptr, align 8
  %7 = alloca ptr, align 8
  %8 = alloca ptr, align 8
  %9 = alloca ptr, align 8
  %10 = alloca i64, align 8
  %11 = alloca i64, align 8
  %12 = alloca i64, align 8
  %13 = alloca i64, align 8
  %14 = alloca i64, align 8
  %15 = alloca i64, align 8
  %16 = alloca i64, align 8
  %17 = alloca i32, align 4
  %18 = alloca i64, align 8
  store ptr %0, ptr %5, align 8, !tbaa !276
  store ptr %1, ptr %6, align 8, !tbaa !276
  store ptr %2, ptr %7, align 8, !tbaa !35
  store ptr %3, ptr %8, align 8, !tbaa !32
  %19 = load ptr, ptr %7, align 8, !tbaa !35
  %20 = load ptr, ptr %8, align 8, !tbaa !32
  store ptr %20, ptr %9, align 8
  call void @llvm.lifetime.start.p0(i64 8, ptr %10) #27
  call void @llvm.lifetime.start.p0(i64 8, ptr %11) #27
  %21 = load i64, ptr %19, align 8, !tbaa !15
  store i64 %21, ptr %11, align 8, !tbaa !15
  call void @llvm.lifetime.start.p0(i64 8, ptr %12) #27
  %22 = load i64, ptr %11, align 8, !tbaa !15
  %23 = sub nsw i64 %22, 0
  %24 = sdiv i64 %23, 1
  %25 = sub nsw i64 %24, 1
  store i64 %25, ptr %12, align 8, !tbaa !15
  call void @llvm.lifetime.start.p0(i64 8, ptr %13) #27
  store i64 0, ptr %13, align 8, !tbaa !15
  call void @llvm.lifetime.end.p0(i64 8, ptr %13) #27
  %26 = load i64, ptr %11, align 8, !tbaa !15
  %27 = icmp slt i64 0, %26
  br i1 %27, label %28, label %62

28:                                               ; preds = %4
  call void @llvm.lifetime.start.p0(i64 8, ptr %14) #27
  store i64 0, ptr %14, align 8, !tbaa !15
  call void @llvm.lifetime.start.p0(i64 8, ptr %15) #27
  %29 = load i64, ptr %12, align 8, !tbaa !15
  store i64 %29, ptr %15, align 8, !tbaa !15
  call void @llvm.lifetime.start.p0(i64 8, ptr %16) #27
  store i64 1, ptr %16, align 8, !tbaa !15
  call void @llvm.lifetime.start.p0(i64 4, ptr %17) #27
  store i32 0, ptr %17, align 4, !tbaa !47
  call void @llvm.lifetime.start.p0(i64 8, ptr %18) #27
  %30 = load ptr, ptr %5, align 8
  %31 = load i32, ptr %30, align 4, !tbaa !47
  call void @__kmpc_for_static_init_8(ptr @1, i32 %31, i32 34, ptr %17, ptr %14, ptr %15, ptr %16, i64 1, i64 1)
  %32 = load i64, ptr %15, align 8, !tbaa !15
  %33 = load i64, ptr %12, align 8, !tbaa !15
  %34 = icmp sgt i64 %32, %33
  br i1 %34, label %35, label %37

35:                                               ; preds = %28
  %36 = load i64, ptr %12, align 8, !tbaa !15
  br label %39

37:                                               ; preds = %28
  %38 = load i64, ptr %15, align 8, !tbaa !15
  br label %39

39:                                               ; preds = %37, %35
  %40 = phi i64 [ %36, %35 ], [ %38, %37 ]
  store i64 %40, ptr %15, align 8, !tbaa !15
  %41 = load i64, ptr %14, align 8, !tbaa !15
  store i64 %41, ptr %10, align 8, !tbaa !15
  br label %42

42:                                               ; preds = %55, %39
  %43 = load i64, ptr %10, align 8, !tbaa !15
  %44 = load i64, ptr %15, align 8, !tbaa !15
  %45 = icmp sle i64 %43, %44
  br i1 %45, label %47, label %46

46:                                               ; preds = %42
  br label %58

47:                                               ; preds = %42
  %48 = load i64, ptr %10, align 8, !tbaa !15
  %49 = mul nsw i64 %48, 1
  %50 = add nsw i64 0, %49
  store i64 %50, ptr %18, align 8, !tbaa !15
  %51 = load ptr, ptr %9, align 8, !tbaa !32
  %52 = load i64, ptr %18, align 8, !tbaa !15
  invoke void @"_ZZZZN6open3d1t8geometry6kernel10pointcloud19NormalizeNormalsCPUERNS_4core6TensorEENK3$_0clEvENKUlvE0_clEvENKUllE_clEl"(ptr noundef nonnull align 8 dereferenceable(8) %51, i64 noundef %52)
          to label %53 unwind label %63

53:                                               ; preds = %47
  br label %54

54:                                               ; preds = %53
  br label %55

55:                                               ; preds = %54
  %56 = load i64, ptr %10, align 8, !tbaa !15
  %57 = add nsw i64 %56, 1
  store i64 %57, ptr %10, align 8, !tbaa !15
  br label %42

58:                                               ; preds = %46
  br label %59

59:                                               ; preds = %58
  %60 = load ptr, ptr %5, align 8
  %61 = load i32, ptr %60, align 4, !tbaa !47
  call void @__kmpc_for_static_fini(ptr @1, i32 %61)
  call void @llvm.lifetime.end.p0(i64 8, ptr %18) #27
  call void @llvm.lifetime.end.p0(i64 4, ptr %17) #27
  call void @llvm.lifetime.end.p0(i64 8, ptr %16) #27
  call void @llvm.lifetime.end.p0(i64 8, ptr %15) #27
  call void @llvm.lifetime.end.p0(i64 8, ptr %14) #27
  br label %62

62:                                               ; preds = %59, %4
  call void @llvm.lifetime.end.p0(i64 8, ptr %12) #27
  call void @llvm.lifetime.end.p0(i64 8, ptr %11) #27
  call void @llvm.lifetime.end.p0(i64 8, ptr %10) #27
  ret void

63:                                               ; preds = %47
  %64 = landingpad { ptr, i32 }
          catch ptr null
  %65 = extractvalue { ptr, i32 } %64, 0
  call void @__clang_call_terminate(ptr %65) #31
  unreachable
}